target datalayout = "e-m:e-p270:32:32-p271:32:32-p272:64:64-i64:64-i128:128-f80:128-n8:16:32:64-S128"
target triple = "x86_64-pc-linux-gnu"

%"class.llvm::SmallVectorBase" = type { ptr, i32, i32 }
%"class.llvm::BlockFrequency" = type { i64 }
%"class.llvm::SpillPlacement" = type { %"class.llvm::MachineFunctionPass", ptr, ptr, ptr, ptr, ptr, %"class.llvm::SmallVector.9", %"class.llvm::SmallVector.9", %"class.llvm::SmallVector.14", %"class.llvm::BlockFrequency", %"class.llvm::SparseSet" }
%"class.llvm::MachineFunctionPass" = type { %"class.llvm::FunctionPass.base", %"class.llvm::MachineFunctionProperties", %"class.llvm::MachineFunctionProperties", %"class.llvm::MachineFunctionProperties" }
%"class.llvm::FunctionPass.base" = type { %"class.llvm::Pass.base" }
%"class.llvm::Pass.base" = type <{ ptr, ptr, ptr, i32 }>
%"class.llvm::MachineFunctionProperties" = type { %"class.std::bitset" }
%"class.std::bitset" = type { %"struct.std::_Base_bitset" }
%"struct.std::_Base_bitset" = type { i64 }
%"class.llvm::SmallVector.9" = type { %"class.llvm::SmallVectorImpl.10", %"struct.llvm::SmallVectorStorage.13" }
%"class.llvm::SmallVectorImpl.10" = type { %"class.llvm::SmallVectorTemplateBase.11" }
%"class.llvm::SmallVectorTemplateBase.11" = type { %"class.llvm::SmallVectorTemplateCommon.12" }
%"class.llvm::SmallVectorTemplateCommon.12" = type { %"class.llvm::SmallVectorBase" }
%"struct.llvm::SmallVectorStorage.13" = type { [32 x i8] }
%"class.llvm::SmallVector.14" = type { %"class.llvm::SmallVectorImpl.15", %"struct.llvm::SmallVectorStorage.18" }
%"class.llvm::SmallVectorImpl.15" = type { %"class.llvm::SmallVectorTemplateBase.16" }
%"class.llvm::SmallVectorTemplateBase.16" = type { %"class.llvm::SmallVectorTemplateCommon.17" }
%"class.llvm::SmallVectorTemplateCommon.17" = type { %"class.llvm::SmallVectorBase" }
%"struct.llvm::SmallVectorStorage.18" = type { [64 x i8] }
%"class.llvm::SparseSet" = type <{ %"class.llvm::SmallVector.9", ptr, i32, [4 x i8] }>
%"class.llvm::EdgeBundles" = type { %"class.llvm::MachineFunctionPass", ptr, %"class.llvm::IntEqClasses", %"class.llvm::SmallVector.98" }
%"class.llvm::IntEqClasses" = type <{ %"class.llvm::SmallVector.9", i32, [4 x i8] }>
%"class.llvm::SmallVector.98" = type { %"class.llvm::SmallVectorImpl.99", %"struct.llvm::SmallVectorStorage.102" }
%"class.llvm::SmallVectorImpl.99" = type { %"class.llvm::SmallVectorTemplateBase.100" }
%"class.llvm::SmallVectorTemplateBase.100" = type { %"class.llvm::SmallVectorTemplateCommon.101" }
%"class.llvm::SmallVectorTemplateCommon.101" = type { %"class.llvm::SmallVectorBase" }
%"struct.llvm::SmallVectorStorage.102" = type { [192 x i8] }
%"class.llvm::BitVector" = type <{ %"class.llvm::SmallVector.152", i32, [4 x i8] }>
%"class.llvm::SmallVector.152" = type { %"class.llvm::SmallVectorImpl.153", %"struct.llvm::SmallVectorStorage.156" }
%"class.llvm::SmallVectorImpl.153" = type { %"class.llvm::SmallVectorTemplateBase.154" }
%"class.llvm::SmallVectorTemplateBase.154" = type { %"class.llvm::SmallVectorTemplateCommon.155" }
%"class.llvm::SmallVectorTemplateCommon.155" = type { %"class.llvm::SmallVectorBase" }
%"struct.llvm::SmallVectorStorage.156" = type { [48 x i8] }

; Function Attrs: mustprogress nounwind uwtable
define linkonce_odr hidden noundef nonnull align 8 dereferenceable(8) ptr @_ZN4llvm25SmallVectorTemplateCommonImvE4backEv(ptr noundef nonnull align 8 dereferenceable(16) %0) #0 comdat align 2 {
  %2 = alloca ptr, align 8
  store ptr %0, ptr %2, align 8
  %3 = load ptr, ptr %2, align 8
  %4 = call noundef ptr @_ZN4llvm25SmallVectorTemplateCommonImvE3endEv(ptr noundef nonnull align 8 dereferenceable(16) %3)
  %5 = getelementptr inbounds i64, ptr %4, i64 -1
  ret ptr %5
}

; Function Attrs: mustprogress nounwind uwtable
define linkonce_odr hidden void @_ZN4llvm23SmallVectorTemplateBaseImLb1EE13destroy_rangeEPmS2_(ptr noundef %0, ptr noundef %1) #0 comdat align 2 {
  %3 = alloca ptr, align 8
  %4 = alloca ptr, align 8
  store ptr %0, ptr %3, align 8
  store ptr %1, ptr %4, align 8
  ret void
}

; Function Attrs: mustprogress nounwind uwtable
define linkonce_odr hidden noundef ptr @_ZN4llvm25SmallVectorTemplateCommonImvE3endEv(ptr noundef nonnull align 8 dereferenceable(16) %0) #0 comdat align 2 {
  %2 = alloca ptr, align 8
  store ptr %0, ptr %2, align 8
  %3 = load ptr, ptr %2, align 8
  %4 = call noundef ptr @_ZN4llvm25SmallVectorTemplateCommonImvE5beginEv(ptr noundef nonnull align 8 dereferenceable(16) %3)
  %5 = call noundef i64 @_ZNK4llvm15SmallVectorBaseIjE4sizeEv(ptr noundef nonnull align 8 dereferenceable(16) %3)
  %6 = getelementptr inbounds i64, ptr %4, i64 %5
  ret ptr %6
}

; Function Attrs: mustprogress nounwind uwtable
define linkonce_odr hidden noundef ptr @_ZN4llvm25SmallVectorTemplateCommonImvE5beginEv(ptr noundef nonnull align 8 dereferenceable(16) %0) #0 comdat align 2 {
  %2 = alloca ptr, align 8
  store ptr %0, ptr %2, align 8
  %3 = load ptr, ptr %2, align 8
  %4 = getelementptr inbounds nuw %"class.llvm::SmallVectorBase", ptr %3, i32 0, i32 0
  %5 = load ptr, ptr %4, align 8
  ret ptr %5
}

; Function Attrs: mustprogress nounwind uwtable
define linkonce_odr hidden void @_ZN4llvm9BitVector17clear_unused_bitsEv(ptr noundef nonnull align 8 dereferenceable(68) %0) #0 comdat align 2 {
  %2 = alloca ptr, align 8
  store ptr %0, ptr %2, align 8
  %3 = load ptr, ptr %2, align 8
  call void @_ZN4llvm9BitVector15set_unused_bitsEb(ptr noundef nonnull align 8 dereferenceable(68) %3, i1 noundef zeroext false)
  ret void
}

; Function Attrs: mustprogress nounwind uwtable
define linkonce_odr hidden noundef i32 @_ZNK4llvm9BitVector11NumBitWordsEj(ptr noundef nonnull align 8 dereferenceable(68) %0, i32 noundef %1) #0 comdat align 2 {
  %3 = alloca ptr, align 8
  %4 = alloca i32, align 4
  store ptr %0, ptr %3, align 8
  store i32 %1, ptr %4, align 4
  %5 = load i32, ptr %4, align 4
  %6 = add i32 %5, 64
  %7 = sub i32 %6, 1
  %8 = udiv i32 %7, 64
  ret i32 %8
}

; Function Attrs: mustprogress nounwind uwtable
define linkonce_odr hidden void @_ZN4llvm9BitVector15set_unused_bitsEb(ptr noundef nonnull align 8 dereferenceable(68) %0, i1 noundef zeroext %1) #0 comdat align 2 {
  %3 = alloca ptr, align 8
  %4 = alloca i8, align 1
  %5 = alloca i32, align 4
  %6 = alloca i64, align 8
  store ptr %0, ptr %3, align 8
  %7 = zext i1 %1 to i8
  store i8 %7, ptr %4, align 1
  %8 = load ptr, ptr %3, align 8
  %9 = getelementptr inbounds nuw %"class.llvm::BitVector", ptr %8, i32 0, i32 1
  %10 = load i32, ptr %9, align 8
  %11 = urem i32 %10, 64
  store i32 %11, ptr %5, align 4
  %12 = load i32, ptr %5, align 4
  %13 = icmp ne i32 %12, 0
  br i1 %13, label %14, label %34

14:                                               ; preds = %2
  %15 = load i32, ptr %5, align 4
  %16 = zext i32 %15 to i64
  %17 = shl i64 -1, %16
  store i64 %17, ptr %6, align 8
  %18 = load i8, ptr %4, align 1
  %19 = trunc i8 %18 to i1
  br i1 %19, label %20, label %26

20:                                               ; preds = %14
  %21 = load i64, ptr %6, align 8
  %22 = getelementptr inbounds nuw %"class.llvm::BitVector", ptr %8, i32 0, i32 0
  %23 = call noundef nonnull align 8 dereferenceable(8) ptr @_ZN4llvm25SmallVectorTemplateCommonImvE4backEv(ptr noundef nonnull align 8 dereferenceable(16) %22)
  %24 = load i64, ptr %23, align 8
  %25 = or i64 %24, %21
  store i64 %25, ptr %23, align 8
  br label %33

26:                                               ; preds = %14
  %27 = load i64, ptr %6, align 8
  %28 = xor i64 %27, -1
  %29 = getelementptr inbounds nuw %"class.llvm::BitVector", ptr %8, i32 0, i32 0
  %30 = call noundef nonnull align 8 dereferenceable(8) ptr @_ZN4llvm25SmallVectorTemplateCommonImvE4backEv(ptr noundef nonnull align 8 dereferenceable(16) %29)
  %31 = load i64, ptr %30, align 8
  %32 = and i64 %31, %28
  store i64 %32, ptr %30, align 8
  br label %33

33:                                               ; preds = %26, %20
  br label %34

34:                                               ; preds = %33, %2
  ret void
}

; Function Attrs: mustprogress nounwind uwtable
define linkonce_odr hidden noundef i32 @_ZNK4llvm12IntEqClasses13getNumClassesEv(ptr noundef nonnull align 8 dereferenceable(52) %0) #0 comdat align 2 {
  %2 = alloca ptr, align 8
  store ptr %0, ptr %2, align 8
  %3 = load ptr, ptr %2, align 8
  %4 = getelementptr inbounds nuw %"class.llvm::IntEqClasses", ptr %3, i32 0, i32 1
  %5 = load i32, ptr %4, align 8
  ret i32 %5
}

; Function Attrs: mustprogress nounwind uwtable
define linkonce_odr hidden void @_ZN4llvm15SmallVectorImplImE5clearEv(ptr noundef nonnull align 8 dereferenceable(16) %0) #0 comdat align 2 {
  %2 = alloca ptr, align 8
  store ptr %0, ptr %2, align 8
  %3 = load ptr, ptr %2, align 8
  %4 = call noundef ptr @_ZN4llvm25SmallVectorTemplateCommonImvE5beginEv(ptr noundef nonnull align 8 dereferenceable(16) %3)
  %5 = call noundef ptr @_ZN4llvm25SmallVectorTemplateCommonImvE3endEv(ptr noundef nonnull align 8 dereferenceable(16) %3)
  call void @_ZN4llvm23SmallVectorTemplateBaseImLb1EE13destroy_rangeEPmS2_(ptr noundef %4, ptr noundef %5)
  %6 = getelementptr inbounds nuw %"class.llvm::SmallVectorBase", ptr %3, i32 0, i32 1
  store i32 0, ptr %6, align 8
  ret void
}

; Function Attrs: mustprogress nounwind uwtable
define linkonce_odr hidden void @_ZN4llvm23SmallVectorTemplateBaseIjLb1EE13destroy_rangeEPjS2_(ptr noundef %0, ptr noundef %1) #0 comdat align 2 {
  %3 = alloca ptr, align 8
  %4 = alloca ptr, align 8
  store ptr %0, ptr %3, align 8
  store ptr %1, ptr %4, align 8
  ret void
}

; Function Attrs: mustprogress nounwind uwtable
define linkonce_odr hidden noundef ptr @_ZN4llvm25SmallVectorTemplateCommonIjvE3endEv(ptr noundef nonnull align 8 dereferenceable(16) %0) #0 comdat align 2 {
  %2 = alloca ptr, align 8
  store ptr %0, ptr %2, align 8
  %3 = load ptr, ptr %2, align 8
  %4 = call noundef ptr @_ZN4llvm25SmallVectorTemplateCommonIjvE5beginEv(ptr noundef nonnull align 8 dereferenceable(16) %3)
  %5 = call noundef i64 @_ZNK4llvm15SmallVectorBaseIjE4sizeEv(ptr noundef nonnull align 8 dereferenceable(16) %3)
  %6 = getelementptr inbounds i32, ptr %4, i64 %5
  ret ptr %6
}

; Function Attrs: mustprogress nounwind uwtable
define linkonce_odr hidden noundef ptr @_ZN4llvm25SmallVectorTemplateCommonIjvE5beginEv(ptr noundef nonnull align 8 dereferenceable(16) %0) #0 comdat align 2 {
  %2 = alloca ptr, align 8
  store ptr %0, ptr %2, align 8
  %3 = load ptr, ptr %2, align 8
  %4 = getelementptr inbounds nuw %"class.llvm::SmallVectorBase", ptr %3, i32 0, i32 0
  %5 = load ptr, ptr %4, align 8
  ret ptr %5
}

; Function Attrs: mustprogress nounwind uwtable
define linkonce_odr hidden void @_ZN4llvm9BitVector6resizeEjb(ptr noundef nonnull align 8 dereferenceable(68) %0, i32 noundef %1, i1 noundef zeroext %2) #0 comdat align 2 {
  %4 = alloca ptr, align 8
  %5 = alloca i32, align 4
  %6 = alloca i8, align 1
  store ptr %0, ptr %4, align 8
  store i32 %1, ptr %5, align 4
  %7 = zext i1 %2 to i8
  store i8 %7, ptr %6, align 1
  %8 = load ptr, ptr %4, align 8
  %9 = load i8, ptr %6, align 1
  %10 = trunc i8 %9 to i1
  call void @_ZN4llvm9BitVector15set_unused_bitsEb(ptr noundef nonnull align 8 dereferenceable(68) %8, i1 noundef zeroext %10)
  %11 = load i32, ptr %5, align 4
  %12 = getelementptr inbounds nuw %"class.llvm::BitVector", ptr %8, i32 0, i32 1
  store i32 %11, ptr %12, align 8
  %13 = getelementptr inbounds nuw %"class.llvm::BitVector", ptr %8, i32 0, i32 0
  %14 = load i32, ptr %5, align 4
  %15 = call noundef i32 @_ZNK4llvm9BitVector11NumBitWordsEj(ptr noundef nonnull align 8 dereferenceable(68) %8, i32 noundef %14)
  %16 = zext i32 %15 to i64
  %17 = load i8, ptr %6, align 1
  %18 = trunc i8 %17 to i1
  %19 = zext i1 %18 to i64
  %20 = sub i64 0, %19
  call void @_ZN4llvm15SmallVectorImplImE6resizeEmm(ptr noundef nonnull align 8 dereferenceable(16) %13, i64 noundef %16, i64 noundef %20)
  call void @_ZN4llvm9BitVector17clear_unused_bitsEv(ptr noundef nonnull align 8 dereferenceable(68) %8)
  ret void
}

; Function Attrs: mustprogress nounwind uwtable
define linkonce_odr hidden noundef i32 @_ZNK4llvm11EdgeBundles13getNumBundlesEv(ptr noundef nonnull align 8 dereferenceable(328) %0) #0 comdat align 2 {
  %2 = alloca ptr, align 8
  store ptr %0, ptr %2, align 8
  %3 = load ptr, ptr %2, align 8
  %4 = getelementptr inbounds nuw %"class.llvm::EdgeBundles", ptr %3, i32 0, i32 2
  %5 = call noundef i32 @_ZNK4llvm12IntEqClasses13getNumClassesEv(ptr noundef nonnull align 8 dereferenceable(52) %4)
  ret i32 %5
}

; Function Attrs: mustprogress nounwind uwtable
define linkonce_odr hidden void @_ZN4llvm9BitVector5clearEv(ptr noundef nonnull align 8 dereferenceable(68) %0) #0 comdat align 2 {
  %2 = alloca ptr, align 8
  store ptr %0, ptr %2, align 8
  %3 = load ptr, ptr %2, align 8
  %4 = getelementptr inbounds nuw %"class.llvm::BitVector", ptr %3, i32 0, i32 1
  store i32 0, ptr %4, align 8
  %5 = getelementptr inbounds nuw %"class.llvm::BitVector", ptr %3, i32 0, i32 0
  call void @_ZN4llvm15SmallVectorImplImE5clearEv(ptr noundef nonnull align 8 dereferenceable(16) %5)
  ret void
}

; Function Attrs: mustprogress nounwind uwtable
define linkonce_odr hidden void @_ZN4llvm9SparseSetIjNS_8identityIjEEhE5clearEv(ptr noundef nonnull align 8 dereferenceable(62) %0) #0 comdat align 2 {
  %2 = alloca ptr, align 8
  store ptr %0, ptr %2, align 8
  %3 = load ptr, ptr %2, align 8
  %4 = getelementptr inbounds nuw %"class.llvm::SparseSet", ptr %3, i32 0, i32 0
  call void @_ZN4llvm15SmallVectorImplIjE5clearEv(ptr noundef nonnull align 8 dereferenceable(16) %4)
  ret void
}

; Function Attrs: mustprogress nounwind uwtable
define linkonce_odr hidden void @_ZN4llvm15SmallVectorImplIjE5clearEv(ptr noundef nonnull align 8 dereferenceable(16) %0) #0 comdat align 2 {
  %2 = alloca ptr, align 8
  store ptr %0, ptr %2, align 8
  %3 = load ptr, ptr %2, align 8
  %4 = call noundef ptr @_ZN4llvm25SmallVectorTemplateCommonIjvE5beginEv(ptr noundef nonnull align 8 dereferenceable(16) %3)
  %5 = call noundef ptr @_ZN4llvm25SmallVectorTemplateCommonIjvE3endEv(ptr noundef nonnull align 8 dereferenceable(16) %3)
  call void @_ZN4llvm23SmallVectorTemplateBaseIjLb1EE13destroy_rangeEPjS2_(ptr noundef %4, ptr noundef %5)
  %6 = getelementptr inbounds nuw %"class.llvm::SmallVectorBase", ptr %3, i32 0, i32 1
  store i32 0, ptr %6, align 8
  ret void
}

; Function Attrs: mustprogress nounwind uwtable
define dso_local void @_ZN4llvm14SpillPlacement7prepareERNS_9BitVectorE(ptr noundef nonnull align 8 dereferenceable(344) %0, ptr noundef nonnull align 8 dereferenceable(68) %1) #0 align 2 {
  %3 = alloca ptr, align 8
  %4 = alloca ptr, align 8
  store ptr %0, ptr %3, align 8
  store ptr %1, ptr %4, align 8
  %5 = load ptr, ptr %3, align 8
  %6 = getelementptr inbounds nuw %"class.llvm::SpillPlacement", ptr %5, i32 0, i32 7
  call void @_ZN4llvm15SmallVectorImplIjE5clearEv(ptr noundef nonnull align 8 dereferenceable(16) %6)
  %7 = getelementptr inbounds nuw %"class.llvm::SpillPlacement", ptr %5, i32 0, i32 10
  call void @_ZN4llvm9SparseSetIjNS_8identityIjEEhE5clearEv(ptr noundef nonnull align 8 dereferenceable(62) %7)
  %8 = load ptr, ptr %4, align 8
  %9 = getelementptr inbounds nuw %"class.llvm::SpillPlacement", ptr %5, i32 0, i32 5
  store ptr %8, ptr %9, align 8
  %10 = getelementptr inbounds nuw %"class.llvm::SpillPlacement", ptr %5, i32 0, i32 5
  %11 = load ptr, ptr %10, align 8
  call void @_ZN4llvm9BitVector5clearEv(ptr noundef nonnull align 8 dereferenceable(68) %11)
  %12 = getelementptr inbounds nuw %"class.llvm::SpillPlacement", ptr %5, i32 0, i32 5
  %13 = load ptr, ptr %12, align 8
  %14 = getelementptr inbounds nuw %"class.llvm::SpillPlacement", ptr %5, i32 0, i32 2
  %15 = load ptr, ptr %14, align 8
  %16 = call noundef i32 @_ZNK4llvm11EdgeBundles13getNumBundlesEv(ptr noundef nonnull align 8 dereferenceable(328) %15)
  call void @_ZN4llvm9BitVector6resizeEjb(ptr noundef nonnull align 8 dereferenceable(68) %13, i32 noundef %16, i1 noundef zeroext false)
  ret void
}