; Function Attrs: mustprogress nounwind uwtable
define dso_local void @_ZN4llvm14SpillPlacement7prepareERNS_9BitVectorE(ptr noundef nonnull align 8 dereferenceable(344) %0, ptr noundef nonnull align 8 dereferenceable(68) %1) local_unnamed_addr #0 align 2 {
  %3 = getelementptr inbounds nuw i8, ptr %0, i64 144
  %4 = tail call noundef i64 @_ZNK4llvm15SmallVectorBaseIjE4sizeEv(ptr noundef nonnull align 8 dereferenceable(16) %3) #17
  %5 = getelementptr inbounds i8, ptr %0, i64 152
  store i32 0, ptr %5, align 8
  %6 = getelementptr inbounds nuw i8, ptr %0, i64 280
  %7 = tail call noundef i64 @_ZNK4llvm15SmallVectorBaseIjE4sizeEv(ptr noundef nonnull align 8 dereferenceable(16) %6) #17
  %8 = getelementptr inbounds i8, ptr %0, i64 288
  store i32 0, ptr %8, align 8
  %9 = getelementptr inbounds nuw i8, ptr %0, i64 88
  store ptr %1, ptr %9, align 8
  %10 = getelementptr inbounds nuw i8, ptr %1, i64 64
  store i32 0, ptr %10, align 8
  %11 = tail call noundef i64 @_ZNK4llvm15SmallVectorBaseIjE4sizeEv(ptr noundef nonnull align 8 dereferenceable(16) %1) #17
  %12 = getelementptr inbounds nuw i8, ptr %1, i64 8
  store i32 0, ptr %12, align 8
  %13 = load ptr, ptr %9, align 8
  %14 = getelementptr inbounds nuw i8, ptr %0, i64 64
  %15 = load ptr, ptr %14, align 8
  %16 = getelementptr inbounds i8, ptr %15, i64 112
  %17 = load i32, ptr %16, align 8
  %18 = getelementptr inbounds nuw i8, ptr %13, i64 64
  %19 = load i32, ptr %18, align 8
  %20 = and i32 %19, 63
  %.not.i.i = icmp eq i32 %20, 0
  br i1 %.not.i.i, label %_ZN4llvm9BitVector15set_unused_bitsEb.exit.i, label %21

21:                                               ; preds = %2
  %22 = zext nneg i32 %20 to i64
  %23 = shl nsw i64 -1, %22
  %24 = xor i64 %23, -1
  %25 = load ptr, ptr %13, align 8
  %26 = tail call noundef i64 @_ZNK4llvm15SmallVectorBaseIjE4sizeEv(ptr noundef nonnull align 8 dereferenceable(16) %13) #17
  %27 = getelementptr inbounds i64, ptr %25, i64 %26
  %28 = getelementptr inbounds i8, ptr %27, i64 -8
  %29 = load i64, ptr %28, align 8
  %30 = and i64 %29, %24
  store i64 %30, ptr %28, align 8
  br label %_ZN4llvm9BitVector15set_unused_bitsEb.exit.i

_ZN4llvm9BitVector15set_unused_bitsEb.exit.i:     ; preds = %21, %2
  store i32 %17, ptr %18, align 8
  %31 = add i32 %17, 63
  %32 = lshr i32 %31, 6
  %33 = zext nneg i32 %32 to i64
  tail call void @_ZN4llvm15SmallVectorImplImE6resizeEmm(ptr noundef nonnull align 8 dereferenceable(16) %13, i64 noundef %33, i64 noundef 0)
  %34 = load i32, ptr %18, align 8
  %35 = and i32 %34, 63
  %.not.i.i.i = icmp eq i32 %35, 0
  br i1 %.not.i.i.i, label %_ZN4llvm9BitVector6resizeEjb.exit, label %36

36:                                               ; preds = %_ZN4llvm9BitVector15set_unused_bitsEb.exit.i
  %37 = zext nneg i32 %35 to i64
  %38 = shl nsw i64 -1, %37
  %39 = xor i64 %38, -1
  %40 = load ptr, ptr %13, align 8
  %41 = tail call noundef i64 @_ZNK4llvm15SmallVectorBaseIjE4sizeEv(ptr noundef nonnull align 8 dereferenceable(16) %13) #17
  %42 = getelementptr inbounds i64, ptr %40, i64 %41
  %43 = getelementptr inbounds i8, ptr %42, i64 -8
  %44 = load i64, ptr %43, align 8
  %45 = and i64 %44, %39
  store i64 %45, ptr %43, align 8
  br label %_ZN4llvm9BitVector6resizeEjb.exit

_ZN4llvm9BitVector6resizeEjb.exit:                ; preds = %_ZN4llvm9BitVector15set_unused_bitsEb.exit.i, %36
  ret void
}